; Function Attrs: null_pointer_is_valid sspstrong uwtable
define internal noundef zeroext i1 @write_csv_packet(ptr noundef %0, ptr noundef %1, ptr noundef %2, ptr noundef %3) #1 {
  %5 = getelementptr inbounds nuw i8, ptr %3, i64 8
  %6 = getelementptr inbounds nuw i8, ptr %0, i64 280
  tail call void @col_custom_prime_edt(ptr noundef nonnull %5, ptr noundef nonnull %6)
  %7 = getelementptr inbounds nuw i8, ptr %0, i64 48
  %8 = load i16, ptr %7, align 8
  %9 = zext i16 %8 to i32
  tail call void @epan_dissect_run(ptr noundef nonnull %5, i32 noundef %9, ptr noundef %2, ptr noundef %1, ptr noundef nonnull %6)
  tail call void @epan_dissect_fill_in_columns(ptr noundef nonnull %5, i1 noundef zeroext false, i1 noundef zeroext true)
  %10 = load ptr, ptr %3, align 8
  tail call void @write_csv_columns(ptr noundef nonnull %5, ptr noundef %10)
  tail call void @epan_dissect_reset(ptr noundef nonnull %5)
  %11 = load ptr, ptr %3, align 8
  %12 = tail call i32 @ferror(ptr noundef %11) #23
  %.not = icmp eq i32 %12, 0
  ret i1 %.not
}